; Function Attrs: mustprogress nofree norecurse nosync nounwind willreturn memory(argmem: read) uwtable
define hidden noundef zeroext i1 @_ZN6google8protobuf8compiler3cpp15IsProfileDrivenERKNS2_7OptionsE(ptr nocapture noundef nonnull readonly align 8 dereferenceable(206) %options) local_unnamed_addr #11 {
entry:
  %bootstrap = getelementptr inbounds i8, ptr %options, i64 198
  %0 = load i8, ptr %bootstrap, align 2
  %1 = and i8 %0, 1
  %tobool.not = icmp eq i8 %1, 0
  br i1 %tobool.not, label %land.lhs.true, label %land.end

land.lhs.true:                                    ; preds = %entry
  %opensource_runtime = getelementptr inbounds i8, ptr %options, i64 199
  %2 = load i8, ptr %opensource_runtime, align 1
  %3 = and i8 %2, 1
  %tobool1.not = icmp eq i8 %3, 0
  br i1 %tobool1.not, label %land.rhs, label %land.end

land.rhs:                                         ; preds = %land.lhs.true
  %4 = load ptr, ptr %options, align 8
  %cmp = icmp ne ptr %4, null
  br label %land.end

land.end:                                         ; preds = %land.rhs, %land.lhs.true, %entry
  %5 = phi i1 [ false, %land.lhs.true ], [ false, %entry ], [ %cmp, %land.rhs ]
  ret i1 %5
}